target datalayout = "e-m:e-p270:32:32-p271:32:32-p272:64:64-i64:64-i128:128-f80:128-n8:16:32:64-S128"
target triple = "x86_64-pc-linux-gnu"

%struct.AVFilterFormatsConfig = type { ptr, ptr, ptr, ptr, ptr }

@query_formats.main_fmts = internal constant [9 x i32] [i32 79, i32 78, i32 33, i32 111, i32 26, i32 28, i32 25, i32 27, i32 -1], align 16
@query_formats.alpha_fmts = internal constant [2 x i32] [i32 8, i32 -1], align 4

; Function Attrs: nounwind uwtable
define internal i32 @query_formats(ptr noundef %0, ptr noundef %1, ptr noundef %2) #0 {
  %4 = alloca i32, align 4
  %5 = alloca ptr, align 8
  %6 = alloca ptr, align 8
  %7 = alloca ptr, align 8
  %8 = alloca i32, align 4
  %9 = alloca i32, align 4
  store ptr %0, ptr %5, align 8, !tbaa !4
  store ptr %1, ptr %6, align 8, !tbaa !30
  store ptr %2, ptr %7, align 8, !tbaa !30
  call void @llvm.lifetime.start.p0(i64 4, ptr %8) #6
  %10 = call ptr @ff_make_format_list(ptr noundef @query_formats.alpha_fmts)
  %11 = load ptr, ptr %6, align 8, !tbaa !30
  %12 = getelementptr inbounds ptr, ptr %11, i64 1
  %13 = load ptr, ptr %12, align 8, !tbaa !32
  %14 = getelementptr inbounds nuw %struct.AVFilterFormatsConfig, ptr %13, i32 0, i32 0
  %15 = call i32 @ff_formats_ref(ptr noundef %10, ptr noundef %14)
  store i32 %15, ptr %8, align 4, !tbaa !34
  %16 = load i32, ptr %8, align 4, !tbaa !34
  %17 = icmp slt i32 %16, 0
  br i1 %17, label %18, label %20

18:                                               ; preds = %3
  %19 = load i32, ptr %8, align 4, !tbaa !34
  store i32 %19, ptr %4, align 4
  store i32 1, ptr %9, align 4
  br label %30

20:                                               ; preds = %3
  %21 = load ptr, ptr %5, align 8, !tbaa !4
  %22 = load ptr, ptr %6, align 8, !tbaa !30
  %23 = load ptr, ptr %7, align 8, !tbaa !30
  %24 = call i32 @ff_set_common_formats_from_list2(ptr noundef %21, ptr noundef %22, ptr noundef %23, ptr noundef @query_formats.main_fmts)
  store i32 %24, ptr %8, align 4, !tbaa !34
  %25 = load i32, ptr %8, align 4, !tbaa !34
  %26 = icmp slt i32 %25, 0
  br i1 %26, label %27, label %29

27:                                               ; preds = %20
  %28 = load i32, ptr %8, align 4, !tbaa !34
  store i32 %28, ptr %4, align 4
  store i32 1, ptr %9, align 4
  br label %30

29:                                               ; preds = %20
  store i32 0, ptr %4, align 4
  store i32 1, ptr %9, align 4
  br label %30

30:                                               ; preds = %29, %27, %18
  call void @llvm.lifetime.end.p0(i64 4, ptr %8) #6
  %31 = load i32, ptr %4, align 4
  ret i32 %31
}