; Function Attrs: nounwind uwtable
define internal range(i32 -2147483648, 1) i32 @query_formats(ptr noundef %0, ptr noundef %1, ptr noundef %2) #0 {
  %4 = tail call ptr @ff_make_format_list(ptr noundef nonnull @query_formats.alpha_fmts) #7
  %5 = getelementptr inbounds nuw i8, ptr %1, i64 8
  %6 = load ptr, ptr %5, align 8, !tbaa !27
  %7 = tail call i32 @ff_formats_ref(ptr noundef %4, ptr noundef %6) #7
  %8 = icmp slt i32 %7, 0
  br i1 %8, label %11, label %9

9:                                                ; preds = %3
  %10 = tail call i32 @ff_set_common_formats_from_list2(ptr noundef %0, ptr noundef nonnull %1, ptr noundef %2, ptr noundef nonnull @query_formats.main_fmts) #7
  %. = tail call i32 @llvm.smin.i32(i32 %10, i32 0)
  br label %11

11:                                               ; preds = %9, %3
  %.0 = phi i32 [ %7, %3 ], [ %., %9 ]
  ret i32 %.0
}